target datalayout = "e-m:e-p270:32:32-p271:32:32-p272:64:64-i64:64-i128:128-f80:128-n8:16:32:64-S128"
target triple = "x86_64-unknown-linux-gnu"

%"class.icu_75::UObject" = type { ptr }
%"class.icu_75::UnicodeSet" = type <{ %"class.icu_75::UnicodeFilter", ptr, i32, i32, i8, [7 x i8], ptr, ptr, i32, [4 x i8], ptr, i32, [4 x i8], ptr, ptr, [25 x i32], [4 x i8] }>
%"class.icu_75::UnicodeFilter" = type { %"class.icu_75::UnicodeFunctor", %"class.icu_75::UnicodeMatcher" }
%"class.icu_75::UnicodeFunctor" = type { %"class.icu_75::UObject" }
%"class.icu_75::UnicodeMatcher" = type { ptr }
%"class.icu_75::UnicodeString" = type { %"class.icu_75::Replaceable", %"union.icu_75::UnicodeString::StackBufferOrFields" }
%"class.icu_75::Replaceable" = type { %"class.icu_75::UObject" }
%"union.icu_75::UnicodeString::StackBufferOrFields" = type { %struct.anon.1, [32 x i8] }
%struct.anon.1 = type { i16, i32, i32, ptr }
%struct.anon = type { i16, [27 x i16] }

@.str.11 = private unnamed_addr constant [28 x i16] [i16 91, i16 91, i16 58, i16 84, i16 104, i16 97, i16 105, i16 58, i16 93, i16 38, i16 91, i16 58, i16 76, i16 105, i16 110, i16 101, i16 66, i16 114, i16 101, i16 97, i16 107, i16 61, i16 83, i16 65, i16 58, i16 93, i16 93, i16 0], align 2
@.str.12 = private unnamed_addr constant [28 x i16] [i16 91, i16 91, i16 58, i16 77, i16 121, i16 109, i16 114, i16 58, i16 93, i16 38, i16 91, i16 58, i16 76, i16 105, i16 110, i16 101, i16 66, i16 114, i16 101, i16 97, i16 107, i16 61, i16 83, i16 65, i16 58, i16 93, i16 93, i16 0], align 2
@_ZTVN6icu_757UObjectE = external unnamed_addr constant { [5 x ptr] }, align 8
@_ZTVN6icu_7513UnicodeStringE = external unnamed_addr constant { [13 x ptr] }, align 8
@_ZTVN6icu_7511ReplaceableE = external unnamed_addr constant { [13 x ptr] }, align 8
@_ZN6icu_758LSTMDataD1Ev = unnamed_addr alias void (ptr), ptr @_ZN6icu_758LSTMDataD2Ev
@_ZN6icu_7515LSTMBreakEngineC1EPKNS_8LSTMDataERKNS_10UnicodeSetER10UErrorCode = unnamed_addr alias void (ptr, ptr, ptr, ptr), ptr @_ZN6icu_7515LSTMBreakEngineC2EPKNS_8LSTMDataERKNS_10UnicodeSetER10UErrorCode

; Function Attrs: mustprogress nounwind uwtable
define linkonce_odr void @_ZN6icu_757UObjectC2Ev(ptr noundef nonnull align 8 dereferenceable(8) %this) unnamed_addr #0 comdat align 2 {
entry:
  %this.addr = alloca ptr, align 8
  store ptr %this, ptr %this.addr, align 8
  %this1 = load ptr, ptr %this.addr, align 8
  store ptr getelementptr inbounds ({ [5 x ptr] }, ptr @_ZTVN6icu_757UObjectE, i32 0, i32 0, i32 2), ptr %this1, align 8
  ret void
}

; Function Attrs: mustprogress nounwind uwtable
define linkonce_odr void @_ZN6icu_7511ReplaceableC2Ev(ptr noundef nonnull align 8 dereferenceable(8) %this) unnamed_addr #0 comdat align 2 {
entry:
  %this.addr = alloca ptr, align 8
  store ptr %this, ptr %this.addr, align 8
  %this1 = load ptr, ptr %this.addr, align 8
  call void @_ZN6icu_757UObjectC2Ev(ptr noundef nonnull align 8 dereferenceable(8) %this1) #12
  store ptr getelementptr inbounds ({ [13 x ptr] }, ptr @_ZTVN6icu_7511ReplaceableE, i32 0, i32 0, i32 2), ptr %this1, align 8
  ret void
}

; Function Attrs: mustprogress nounwind uwtable
define internal noundef signext i8 @_ZL9U_FAILURE10UErrorCode(i32 noundef %code) #0 {
entry:
  %code.addr = alloca i32, align 4
  store i32 %code, ptr %code.addr, align 4
  %0 = load i32, ptr %code.addr, align 4
  %cmp = icmp sgt i32 %0, 0
  %conv = zext i1 %cmp to i8
  ret i8 %conv
}

; Function Attrs: mustprogress uwtable
define linkonce_odr void @_ZN6icu_7513UnicodeStringC2Ev(ptr noundef nonnull align 8 dereferenceable(64) %this) unnamed_addr #1 comdat align 2 {
entry:
  %this.addr = alloca ptr, align 8
  store ptr %this, ptr %this.addr, align 8
  %this1 = load ptr, ptr %this.addr, align 8
  call void @_ZN6icu_7511ReplaceableC2Ev(ptr noundef nonnull align 8 dereferenceable(8) %this1)
  store ptr getelementptr inbounds ({ [13 x ptr] }, ptr @_ZTVN6icu_7513UnicodeStringE, i32 0, i32 0, i32 2), ptr %this1, align 8
  %fUnion2 = getelementptr inbounds %"class.icu_75::UnicodeString", ptr %this1, i32 0, i32 1
  %fLengthAndFlags = getelementptr inbounds %struct.anon, ptr %fUnion2, i32 0, i32 0
  store i16 2, ptr %fLengthAndFlags, align 8
  ret void
}

; Function Attrs: mustprogress uwtable
define ptr @CreateLSTMBreakEngine_75(i32 noundef %script, ptr noundef %data, ptr noundef nonnull align 4 dereferenceable(4) %status) #1 personality ptr @__gxx_personality_v0 {
entry:
  %retval = alloca ptr, align 8
  %script.addr = alloca i32, align 4
  %data.addr = alloca ptr, align 8
  %status.addr = alloca ptr, align 8
  %unicodeSetString = alloca %"class.icu_75::UnicodeString", align 8
  %ref.tmp = alloca %"class.icu_75::UnicodeString", align 8
  %exn.slot = alloca ptr, align 8
  %ehselector.slot = alloca i32, align 4
  %ref.tmp2 = alloca %"class.icu_75::UnicodeString", align 8
  %cleanup.dest.slot = alloca i32, align 4
  %unicodeSet = alloca %"class.icu_75::UnicodeSet", align 8
  %engine = alloca ptr, align 8
  %saved-rvalue = alloca ptr, align 8
  %cleanup.cond = alloca i1, align 1
  store i32 %script, ptr %script.addr, align 4
  store ptr %data, ptr %data.addr, align 8
  store ptr %status, ptr %status.addr, align 8
  call void @_ZN6icu_7513UnicodeStringC2Ev(ptr noundef nonnull align 8 dereferenceable(64) %unicodeSetString)
  %0 = load i32, ptr %script.addr, align 4
  switch i32 %0, label %sw.default [
    i32 38, label %sw.bb
    i32 28, label %sw.bb1
  ]

sw.bb:                                            ; preds = %entry
  invoke void @_ZN6icu_7513UnicodeStringC1EPKDs(ptr noundef nonnull align 8 dereferenceable(64) %ref.tmp, ptr noundef @.str.11)
          to label %invoke.cont unwind label %lpad

invoke.cont:                                      ; preds = %sw.bb
  %call = call noundef nonnull align 8 dereferenceable(64) ptr @_ZN6icu_7513UnicodeStringaSEOS0_(ptr noundef nonnull align 8 dereferenceable(64) %unicodeSetString, ptr noundef nonnull align 8 dereferenceable(64) %ref.tmp) #12
  call void @_ZN6icu_7513UnicodeStringD1Ev(ptr noundef nonnull align 8 dereferenceable(64) %ref.tmp) #12
  br label %sw.epilog

lpad:                                             ; preds = %sw.epilog, %sw.bb1, %sw.bb
  %1 = landingpad { ptr, i32 }
          cleanup
  %2 = extractvalue { ptr, i32 } %1, 0
  store ptr %2, ptr %exn.slot, align 8
  %3 = extractvalue { ptr, i32 } %1, 1
  store i32 %3, ptr %ehselector.slot, align 4
  br label %ehcleanup21

sw.bb1:                                           ; preds = %entry
  invoke void @_ZN6icu_7513UnicodeStringC1EPKDs(ptr noundef nonnull align 8 dereferenceable(64) %ref.tmp2, ptr noundef @.str.12)
          to label %invoke.cont3 unwind label %lpad

invoke.cont3:                                     ; preds = %sw.bb1
  %call4 = call noundef nonnull align 8 dereferenceable(64) ptr @_ZN6icu_7513UnicodeStringaSEOS0_(ptr noundef nonnull align 8 dereferenceable(64) %unicodeSetString, ptr noundef nonnull align 8 dereferenceable(64) %ref.tmp2) #12
  call void @_ZN6icu_7513UnicodeStringD1Ev(ptr noundef nonnull align 8 dereferenceable(64) %ref.tmp2) #12
  br label %sw.epilog

sw.default:                                       ; preds = %entry
  %4 = load ptr, ptr %data.addr, align 8
  %isnull = icmp eq ptr %4, null
  br i1 %isnull, label %delete.end, label %delete.notnull

delete.notnull:                                   ; preds = %sw.default
  call void @_ZN6icu_758LSTMDataD1Ev(ptr noundef nonnull align 8 dereferenceable(248) %4) #12
  call void @_ZN6icu_757UMemorydlEPv(ptr noundef %4) #12
  br label %delete.end

delete.end:                                       ; preds = %delete.notnull, %sw.default
  store ptr null, ptr %retval, align 8
  store i32 1, ptr %cleanup.dest.slot, align 4
  br label %cleanup20

sw.epilog:                                        ; preds = %invoke.cont3, %invoke.cont
  invoke void @_ZN6icu_7510UnicodeSetC1Ev(ptr noundef nonnull align 8 dereferenceable(200) %unicodeSet)
          to label %invoke.cont5 unwind label %lpad

invoke.cont5:                                     ; preds = %sw.epilog
  %5 = load ptr, ptr %status.addr, align 8
  %call8 = invoke noundef nonnull align 8 dereferenceable(200) ptr @_ZN6icu_7510UnicodeSet12applyPatternERKNS_13UnicodeStringER10UErrorCode(ptr noundef nonnull align 8 dereferenceable(200) %unicodeSet, ptr noundef nonnull align 8 dereferenceable(64) %unicodeSetString, ptr noundef nonnull align 4 dereferenceable(4) %5)
          to label %invoke.cont7 unwind label %lpad6

invoke.cont7:                                     ; preds = %invoke.cont5
  %call9 = call noundef ptr @_ZN6icu_757UMemorynwEm(i64 noundef 224) #12
  %new.isnull = icmp eq ptr %call9, null
  store i1 false, ptr %cleanup.cond, align 1
  br i1 %new.isnull, label %new.cont, label %new.notnull

new.notnull:                                      ; preds = %invoke.cont7
  store ptr %call9, ptr %saved-rvalue, align 8
  store i1 true, ptr %cleanup.cond, align 1
  %6 = load ptr, ptr %data.addr, align 8
  %7 = load ptr, ptr %status.addr, align 8
  invoke void @_ZN6icu_7515LSTMBreakEngineC1EPKNS_8LSTMDataERKNS_10UnicodeSetER10UErrorCode(ptr noundef nonnull align 8 dereferenceable(224) %call9, ptr noundef %6, ptr noundef nonnull align 8 dereferenceable(200) %unicodeSet, ptr noundef nonnull align 4 dereferenceable(4) %7)
          to label %invoke.cont11 unwind label %lpad10

invoke.cont11:                                    ; preds = %new.notnull
  br label %new.cont

new.cont:                                         ; preds = %invoke.cont11, %invoke.cont7
  %8 = phi ptr [ %call9, %invoke.cont11 ], [ null, %invoke.cont7 ]
  store ptr %8, ptr %engine, align 8
  %9 = load ptr, ptr %status.addr, align 8
  %10 = load i32, ptr %9, align 4
  %call13 = invoke noundef signext i8 @_ZL9U_FAILURE10UErrorCode(i32 noundef %10)
          to label %invoke.cont12 unwind label %lpad6

invoke.cont12:                                    ; preds = %new.cont
  %tobool = icmp ne i8 %call13, 0
  br i1 %tobool, label %if.then, label %lor.lhs.false

lor.lhs.false:                                    ; preds = %invoke.cont12
  %11 = load ptr, ptr %engine, align 8
  %cmp = icmp eq ptr %11, null
  br i1 %cmp, label %if.then, label %if.end19

if.then:                                          ; preds = %lor.lhs.false, %invoke.cont12
  %12 = load ptr, ptr %engine, align 8
  %cmp14 = icmp ne ptr %12, null
  br i1 %cmp14, label %if.then15, label %if.else

if.then15:                                        ; preds = %if.then
  %13 = load ptr, ptr %engine, align 8
  %isnull16 = icmp eq ptr %13, null
  br i1 %isnull16, label %delete.end18, label %delete.notnull17

delete.notnull17:                                 ; preds = %if.then15
  %vtable = load ptr, ptr %13, align 8
  %vfn = getelementptr inbounds ptr, ptr %vtable, i64 1
  %14 = load ptr, ptr %vfn, align 8
  call void %14(ptr noundef nonnull align 8 dereferenceable(8) %13) #12
  br label %delete.end18

delete.end18:                                     ; preds = %delete.notnull17, %if.then15
  br label %if.end

lpad6:                                            ; preds = %new.cont, %invoke.cont5
  %15 = landingpad { ptr, i32 }
          cleanup
  %16 = extractvalue { ptr, i32 } %15, 0
  store ptr %16, ptr %exn.slot, align 8
  %17 = extractvalue { ptr, i32 } %15, 1
  store i32 %17, ptr %ehselector.slot, align 4
  br label %ehcleanup

lpad10:                                           ; preds = %new.notnull
  %18 = landingpad { ptr, i32 }
          cleanup
  %19 = extractvalue { ptr, i32 } %18, 0
  store ptr %19, ptr %exn.slot, align 8
  %20 = extractvalue { ptr, i32 } %18, 1
  store i32 %20, ptr %ehselector.slot, align 4
  %cleanup.is_active = load i1, ptr %cleanup.cond, align 1
  br i1 %cleanup.is_active, label %cleanup.action, label %cleanup.done

cleanup.action:                                   ; preds = %lpad10
  %21 = load ptr, ptr %saved-rvalue, align 8
  call void @_ZN6icu_757UMemorydlEPv(ptr noundef %21) #12
  br label %cleanup.done

cleanup.done:                                     ; preds = %cleanup.action, %lpad10
  br label %ehcleanup

if.else:                                          ; preds = %if.then
  %22 = load ptr, ptr %status.addr, align 8
  store i32 7, ptr %22, align 4
  br label %if.end

if.end:                                           ; preds = %if.else, %delete.end18
  store ptr null, ptr %retval, align 8
  store i32 1, ptr %cleanup.dest.slot, align 4
  br label %cleanup

if.end19:                                         ; preds = %lor.lhs.false
  %23 = load ptr, ptr %engine, align 8
  store ptr %23, ptr %retval, align 8
  store i32 1, ptr %cleanup.dest.slot, align 4
  br label %cleanup

cleanup:                                          ; preds = %if.end19, %if.end
  call void @_ZN6icu_7510UnicodeSetD1Ev(ptr noundef nonnull align 8 dereferenceable(200) %unicodeSet) #12
  br label %cleanup20

ehcleanup:                                        ; preds = %cleanup.done, %lpad6
  call void @_ZN6icu_7510UnicodeSetD1Ev(ptr noundef nonnull align 8 dereferenceable(200) %unicodeSet) #12
  br label %ehcleanup21

cleanup20:                                        ; preds = %cleanup, %delete.end
  call void @_ZN6icu_7513UnicodeStringD1Ev(ptr noundef nonnull align 8 dereferenceable(64) %unicodeSetString) #12
  %24 = load ptr, ptr %retval, align 8
  ret ptr %24

ehcleanup21:                                      ; preds = %ehcleanup, %lpad
  call void @_ZN6icu_7513UnicodeStringD1Ev(ptr noundef nonnull align 8 dereferenceable(64) %unicodeSetString) #12
  br label %eh.resume

eh.resume:                                        ; preds = %ehcleanup21
  %exn = load ptr, ptr %exn.slot, align 8
  %sel = load i32, ptr %ehselector.slot, align 4
  %lpad.val = insertvalue { ptr, i32 } poison, ptr %exn, 0
  %lpad.val22 = insertvalue { ptr, i32 } %lpad.val, i32 %sel, 1
  resume { ptr, i32 } %lpad.val22
}