; Function Attrs: mustprogress uwtable
define noundef ptr @CreateLSTMBreakEngine_75(i32 noundef %script, ptr noundef %data, ptr noundef nonnull align 4 dereferenceable(4) %status) local_unnamed_addr #1 personality ptr @__gxx_personality_v0 {
entry:
  %unicodeSetString = alloca %"class.icu_75::UnicodeString", align 8
  %ref.tmp = alloca %"class.icu_75::UnicodeString", align 8
  %ref.tmp2 = alloca %"class.icu_75::UnicodeString", align 8
  %unicodeSet = alloca %"class.icu_75::UnicodeSet", align 8
  store ptr getelementptr inbounds ({ [13 x ptr] }, ptr @_ZTVN6icu_7513UnicodeStringE, i64 0, i32 0, i64 2), ptr %unicodeSetString, align 8
  %fUnion2.i = getelementptr inbounds i8, ptr %unicodeSetString, i64 8
  store i16 2, ptr %fUnion2.i, align 8
  switch i32 %script, label %sw.default [
    i32 38, label %sw.bb
    i32 28, label %sw.bb1
  ]

sw.bb:                                            ; preds = %entry
  invoke void @_ZN6icu_7513UnicodeStringC1EPKDs(ptr noundef nonnull align 8 dereferenceable(64) %ref.tmp, ptr noundef nonnull @.str.11)
          to label %sw.epilog unwind label %lpad

lpad:                                             ; preds = %sw.epilog, %sw.bb1, %sw.bb
  %0 = landingpad { ptr, i32 }
          cleanup
  br label %ehcleanup21

sw.bb1:                                           ; preds = %entry
  invoke void @_ZN6icu_7513UnicodeStringC1EPKDs(ptr noundef nonnull align 8 dereferenceable(64) %ref.tmp2, ptr noundef nonnull @.str.12)
          to label %sw.epilog unwind label %lpad

sw.default:                                       ; preds = %entry
  %isnull = icmp eq ptr %data, null
  br i1 %isnull, label %cleanup20, label %delete.notnull

delete.notnull:                                   ; preds = %sw.default
  tail call void @_ZN6icu_758LSTMDataD1Ev(ptr noundef nonnull align 8 dereferenceable(248) %data) #20
  tail call void @_ZN6icu_757UMemorydlEPv(ptr noundef nonnull %data) #20
  br label %cleanup20

sw.epilog:                                        ; preds = %sw.bb1, %sw.bb
  %ref.tmp2.sink16 = phi ptr [ %ref.tmp, %sw.bb ], [ %ref.tmp2, %sw.bb1 ]
  %call4 = call noundef nonnull align 8 dereferenceable(64) ptr @_ZN6icu_7513UnicodeStringaSEOS0_(ptr noundef nonnull align 8 dereferenceable(64) %unicodeSetString, ptr noundef nonnull align 8 dereferenceable(64) %ref.tmp2.sink16) #20
  call void @_ZN6icu_7513UnicodeStringD1Ev(ptr noundef nonnull align 8 dereferenceable(64) %ref.tmp2.sink16) #20
  invoke void @_ZN6icu_7510UnicodeSetC1Ev(ptr noundef nonnull align 8 dereferenceable(200) %unicodeSet)
          to label %invoke.cont5 unwind label %lpad

invoke.cont5:                                     ; preds = %sw.epilog
  %call8 = invoke noundef nonnull align 8 dereferenceable(200) ptr @_ZN6icu_7510UnicodeSet12applyPatternERKNS_13UnicodeStringER10UErrorCode(ptr noundef nonnull align 8 dereferenceable(200) %unicodeSet, ptr noundef nonnull align 8 dereferenceable(64) %unicodeSetString, ptr noundef nonnull align 4 dereferenceable(4) %status)
          to label %invoke.cont7 unwind label %lpad6

invoke.cont7:                                     ; preds = %invoke.cont5
  %call9 = call noundef ptr @_ZN6icu_757UMemorynwEm(i64 noundef 224) #20
  %new.isnull = icmp eq ptr %call9, null
  br i1 %new.isnull, label %if.else, label %new.notnull

new.notnull:                                      ; preds = %invoke.cont7
  invoke void @_ZN6icu_7515LSTMBreakEngineC1EPKNS_8LSTMDataERKNS_10UnicodeSetER10UErrorCode(ptr noundef nonnull align 8 dereferenceable(224) %call9, ptr noundef %data, ptr noundef nonnull align 8 dereferenceable(200) %unicodeSet, ptr noundef nonnull align 4 dereferenceable(4) %status)
          to label %new.cont unwind label %lpad10

new.cont:                                         ; preds = %new.notnull
  %1 = load i32, ptr %status, align 4
  %cmp.i = icmp sgt i32 %1, 0
  br i1 %cmp.i, label %delete.notnull17, label %cleanup

delete.notnull17:                                 ; preds = %new.cont
  %vtable = load ptr, ptr %call9, align 8
  %vfn = getelementptr inbounds i8, ptr %vtable, i64 8
  %2 = load ptr, ptr %vfn, align 8
  call void %2(ptr noundef nonnull align 8 dereferenceable(8) %call9) #20
  br label %cleanup

lpad6:                                            ; preds = %invoke.cont5
  %3 = landingpad { ptr, i32 }
          cleanup
  br label %ehcleanup

lpad10:                                           ; preds = %new.notnull
  %4 = landingpad { ptr, i32 }
          cleanup
  call void @_ZN6icu_757UMemorydlEPv(ptr noundef nonnull %call9) #20
  br label %ehcleanup

if.else:                                          ; preds = %invoke.cont7
  store i32 7, ptr %status, align 4
  br label %cleanup

cleanup:                                          ; preds = %new.cont, %if.else, %delete.notnull17
  %retval.0 = phi ptr [ null, %delete.notnull17 ], [ null, %if.else ], [ %call9, %new.cont ]
  call void @_ZN6icu_7510UnicodeSetD1Ev(ptr noundef nonnull align 8 dereferenceable(200) %unicodeSet) #20
  br label %cleanup20

ehcleanup:                                        ; preds = %lpad10, %lpad6
  %.pn = phi { ptr, i32 } [ %4, %lpad10 ], [ %3, %lpad6 ]
  call void @_ZN6icu_7510UnicodeSetD1Ev(ptr noundef nonnull align 8 dereferenceable(200) %unicodeSet) #20
  br label %ehcleanup21

cleanup20:                                        ; preds = %sw.default, %delete.notnull, %cleanup
  %retval.1 = phi ptr [ %retval.0, %cleanup ], [ null, %delete.notnull ], [ null, %sw.default ]
  call void @_ZN6icu_7513UnicodeStringD1Ev(ptr noundef nonnull align 8 dereferenceable(64) %unicodeSetString) #20
  ret ptr %retval.1

ehcleanup21:                                      ; preds = %ehcleanup, %lpad
  %.pn.pn = phi { ptr, i32 } [ %.pn, %ehcleanup ], [ %0, %lpad ]
  call void @_ZN6icu_7513UnicodeStringD1Ev(ptr noundef nonnull align 8 dereferenceable(64) %unicodeSetString) #20
  resume { ptr, i32 } %.pn.pn
}